target datalayout = "e-m:e-p270:32:32-p271:32:32-p272:64:64-i64:64-i128:128-f80:128-n8:16:32:64-S128"
target triple = "x86_64-pc-linux-gnu"

%"class.Imf_3_4::ContextInitializer" = type { %struct._exr_context_initializer_v3, i32, ptr }
%struct._exr_context_initializer_v3 = type { i64, ptr, ptr, ptr, ptr, ptr, ptr, ptr, ptr, i32, i32, i32, i32, i32, float, i32, [4 x i8] }

; Function Attrs: noinline noreturn nounwind uwtable
define linkonce_odr hidden void @__clang_call_terminate(ptr noundef %0) #11 comdat {
  %2 = call ptr @__cxa_begin_catch(ptr %0) #3
  call void @_ZSt9terminatev() #24
  unreachable
}

; Function Attrs: mustprogress nounwind uwtable
define linkonce_odr hidden void @_ZN7Imf_3_418ContextInitializer7setFlagEib(ptr noundef nonnull align 8 dereferenceable(120) %0, i32 noundef %1, i1 noundef zeroext %2) #7 comdat align 2 {
  %4 = alloca ptr, align 8
  %5 = alloca i32, align 4
  %6 = alloca i8, align 1
  store ptr %0, ptr %4, align 8, !tbaa !10
  store i32 %1, ptr %5, align 4, !tbaa !12
  %7 = zext i1 %2 to i8
  store i8 %7, ptr %6, align 1, !tbaa !90
  %8 = load ptr, ptr %4, align 8
  %9 = getelementptr inbounds nuw %"class.Imf_3_4::ContextInitializer", ptr %8, i32 0, i32 0
  %10 = getelementptr inbounds nuw %struct._exr_context_initializer_v3, ptr %9, i32 0, i32 15
  %11 = load i32, ptr %10, align 8, !tbaa !243
  %12 = load i32, ptr %5, align 4, !tbaa !12
  %13 = xor i32 %12, -1
  %14 = and i32 %11, %13
  %15 = load i8, ptr %6, align 1, !tbaa !90, !range !91, !noundef !92
  %16 = trunc i8 %15 to i1
  br i1 %16, label %17, label %19

17:                                               ; preds = %3
  %18 = load i32, ptr %5, align 4, !tbaa !12
  br label %20

19:                                               ; preds = %3
  br label %20

20:                                               ; preds = %19, %17
  %21 = phi i32 [ %18, %17 ], [ 0, %19 ]
  %22 = or i32 %14, %21
  %23 = getelementptr inbounds nuw %"class.Imf_3_4::ContextInitializer", ptr %8, i32 0, i32 0
  %24 = getelementptr inbounds nuw %struct._exr_context_initializer_v3, ptr %23, i32 0, i32 15
  store i32 %22, ptr %24, align 8, !tbaa !243
  ret void
}

; Function Attrs: mustprogress nounwind uwtable
define linkonce_odr hidden noundef nonnull align 8 dereferenceable(120) ptr @_ZN7Imf_3_418ContextInitializer22strictHeaderValidationEb(ptr noundef nonnull align 8 dereferenceable(120) %0, i1 noundef zeroext %1) #7 comdat align 2 {
  %3 = alloca ptr, align 8
  %4 = alloca i8, align 1
  store ptr %0, ptr %3, align 8, !tbaa !10
  %5 = zext i1 %1 to i8
  store i8 %5, ptr %4, align 1, !tbaa !90
  %6 = load ptr, ptr %3, align 8
  %7 = load i8, ptr %4, align 1, !tbaa !90, !range !91, !noundef !92
  %8 = trunc i8 %7 to i1
  call void @_ZN7Imf_3_418ContextInitializer7setFlagEib(ptr noundef nonnull align 8 dereferenceable(120) %6, i32 noundef 1, i1 noundef zeroext %8)
  ret ptr %6
}

; Function Attrs: mustprogress nounwind uwtable
define linkonce_odr hidden noundef nonnull align 8 dereferenceable(120) ptr @_ZN7Imf_3_418ContextInitializer17silentHeaderParseEb(ptr noundef nonnull align 8 dereferenceable(120) %0, i1 noundef zeroext %1) #7 comdat align 2 personality ptr @__gxx_personality_v0 {
  %3 = alloca ptr, align 8
  %4 = alloca i8, align 1
  store ptr %0, ptr %3, align 8, !tbaa !10
  %5 = zext i1 %1 to i8
  store i8 %5, ptr %4, align 1, !tbaa !90
  %6 = load ptr, ptr %3, align 8
  %7 = load i8, ptr %4, align 1, !tbaa !90, !range !91, !noundef !92
  %8 = trunc i8 %7 to i1
  invoke void @_ZN7Imf_3_418ContextInitializer7setFlagEib(ptr noundef nonnull align 8 dereferenceable(120) %6, i32 noundef 2, i1 noundef zeroext %8)
          to label %9 unwind label %10

9:                                                ; preds = %2
  ret ptr %6

10:                                               ; preds = %2
  %11 = landingpad { ptr, i32 }
          catch ptr null
  %12 = extractvalue { ptr, i32 } %11, 0
  call void @__clang_call_terminate(ptr %12) #24
  unreachable
}

; Function Attrs: inlinehint mustprogress nounwind uwtable
define linkonce_odr hidden void @_ZN7Imf_3_418ContextInitializerC2Ev(ptr noundef nonnull align 8 dereferenceable(120) %0) unnamed_addr #8 comdat align 2 {
  %2 = alloca ptr, align 8
  store ptr %0, ptr %2, align 8, !tbaa !10
  %3 = load ptr, ptr %2, align 8
  %4 = getelementptr inbounds nuw %"class.Imf_3_4::ContextInitializer", ptr %3, i32 0, i32 0
  %5 = getelementptr inbounds nuw %struct._exr_context_initializer_v3, ptr %4, i32 0, i32 0
  store i64 104, ptr %5, align 8, !tbaa !66
  %6 = getelementptr inbounds nuw %struct._exr_context_initializer_v3, ptr %4, i32 0, i32 1
  store ptr null, ptr %6, align 8, !tbaa !69
  %7 = getelementptr inbounds nuw %struct._exr_context_initializer_v3, ptr %4, i32 0, i32 2
  store ptr null, ptr %7, align 8, !tbaa !70
  %8 = getelementptr inbounds nuw %struct._exr_context_initializer_v3, ptr %4, i32 0, i32 3
  store ptr null, ptr %8, align 8, !tbaa !71
  %9 = getelementptr inbounds nuw %struct._exr_context_initializer_v3, ptr %4, i32 0, i32 4
  store ptr null, ptr %9, align 8, !tbaa !72
  %10 = getelementptr inbounds nuw %struct._exr_context_initializer_v3, ptr %4, i32 0, i32 5
  store ptr null, ptr %10, align 8, !tbaa !73
  %11 = getelementptr inbounds nuw %struct._exr_context_initializer_v3, ptr %4, i32 0, i32 6
  store ptr null, ptr %11, align 8, !tbaa !74
  %12 = getelementptr inbounds nuw %struct._exr_context_initializer_v3, ptr %4, i32 0, i32 7
  store ptr null, ptr %12, align 8, !tbaa !75
  %13 = getelementptr inbounds nuw %struct._exr_context_initializer_v3, ptr %4, i32 0, i32 8
  store ptr null, ptr %13, align 8, !tbaa !76
  %14 = getelementptr inbounds nuw %struct._exr_context_initializer_v3, ptr %4, i32 0, i32 9
  store i32 0, ptr %14, align 8, !tbaa !77
  %15 = getelementptr inbounds nuw %struct._exr_context_initializer_v3, ptr %4, i32 0, i32 10
  store i32 0, ptr %15, align 4, !tbaa !78
  %16 = getelementptr inbounds nuw %struct._exr_context_initializer_v3, ptr %4, i32 0, i32 11
  store i32 0, ptr %16, align 8, !tbaa !79
  %17 = getelementptr inbounds nuw %struct._exr_context_initializer_v3, ptr %4, i32 0, i32 12
  store i32 0, ptr %17, align 4, !tbaa !80
  %18 = getelementptr inbounds nuw %struct._exr_context_initializer_v3, ptr %4, i32 0, i32 13
  store i32 -2, ptr %18, align 8, !tbaa !81
  %19 = getelementptr inbounds nuw %struct._exr_context_initializer_v3, ptr %4, i32 0, i32 14
  store float -1.000000e+00, ptr %19, align 4, !tbaa !82
  %20 = getelementptr inbounds nuw %struct._exr_context_initializer_v3, ptr %4, i32 0, i32 15
  store i32 0, ptr %20, align 8, !tbaa !83
  %21 = getelementptr inbounds nuw %struct._exr_context_initializer_v3, ptr %4, i32 0, i32 16
  store i8 0, ptr %21, align 1, !tbaa !84
  %22 = getelementptr inbounds i8, ptr %21, i64 1
  store i8 0, ptr %22, align 1, !tbaa !84
  %23 = getelementptr inbounds i8, ptr %21, i64 2
  store i8 0, ptr %23, align 1, !tbaa !84
  %24 = getelementptr inbounds i8, ptr %21, i64 3
  store i8 0, ptr %24, align 1, !tbaa !84
  %25 = getelementptr inbounds nuw %"class.Imf_3_4::ContextInitializer", ptr %3, i32 0, i32 1
  store i32 3, ptr %25, align 8, !tbaa !85
  %26 = getelementptr inbounds nuw %"class.Imf_3_4::ContextInitializer", ptr %3, i32 0, i32 2
  store ptr null, ptr %26, align 8, !tbaa !89
  ret void
}

; Function Attrs: mustprogress uwtable
define void @_ZN7Imf_3_414TiledInputFileC2ERNS_7IStreamEi(ptr noundef nonnull align 8 dereferenceable(32) %0, ptr noundef nonnull align 8 dereferenceable(40) %1, i32 noundef %2) unnamed_addr #4 align 2 {
  %4 = alloca ptr, align 8
  %5 = alloca ptr, align 8
  %6 = alloca i32, align 4
  %7 = alloca %"class.Imf_3_4::ContextInitializer", align 8
  store ptr %0, ptr %4, align 8, !tbaa !3
  store ptr %1, ptr %5, align 8, !tbaa !93
  store i32 %2, ptr %6, align 4, !tbaa !12
  %8 = load ptr, ptr %4, align 8
  %9 = load ptr, ptr %5, align 8, !tbaa !93
  %10 = call noundef ptr @_ZNK7Imf_3_47IStream8fileNameEv(ptr noundef nonnull align 8 dereferenceable(40) %9)
  call void @llvm.lifetime.start.p0(i64 120, ptr %7) #3
  call void @llvm.memset.p0.i64(ptr align 8 %7, i8 0, i64 120, i1 false)
  call void @_ZN7Imf_3_418ContextInitializerC2Ev(ptr noundef nonnull align 8 dereferenceable(120) %7) #3
  %11 = call noundef nonnull align 8 dereferenceable(120) ptr @_ZN7Imf_3_418ContextInitializer17silentHeaderParseEb(ptr noundef nonnull align 8 dereferenceable(120) %7, i1 noundef zeroext true) #3
  %12 = call noundef nonnull align 8 dereferenceable(120) ptr @_ZN7Imf_3_418ContextInitializer22strictHeaderValidationEb(ptr noundef nonnull align 8 dereferenceable(120) %11, i1 noundef zeroext false) #3
  %13 = load ptr, ptr %5, align 8, !tbaa !93
  %14 = call noundef nonnull align 8 dereferenceable(120) ptr @_ZN7Imf_3_418ContextInitializer14setInputStreamEPNS_7IStreamE(ptr noundef nonnull align 8 dereferenceable(120) %12, ptr noundef %13)
  %15 = load i32, ptr %6, align 4, !tbaa !12
  call void @_ZN7Imf_3_414TiledInputFileC2EPKcRKNS_18ContextInitializerEi(ptr noundef nonnull align 8 dereferenceable(32) %8, ptr noundef %10, ptr noundef nonnull align 8 dereferenceable(120) %14, i32 noundef %15)
  call void @llvm.lifetime.end.p0(i64 120, ptr %7) #3
  ret void
}